; Function Attrs: cold nounwind optsize uwtable
define range(i32 -12, 1) i32 @ff_mpv_decode_init(ptr noundef %0, ptr noundef %1) local_unnamed_addr #0 {
  tail call void @ff_mpv_common_defaults(ptr noundef %0) #10
  %3 = getelementptr inbounds nuw i8, ptr %0, i64 472
  store ptr %1, ptr %3, align 8, !tbaa !4
  %4 = getelementptr inbounds nuw i8, ptr %1, i64 120
  %5 = load i32, ptr %4, align 8, !tbaa !36
  %6 = getelementptr inbounds nuw i8, ptr %0, i64 488
  store i32 %5, ptr %6, align 8, !tbaa !50
  %7 = getelementptr inbounds nuw i8, ptr %1, i64 124
  %8 = load i32, ptr %7, align 4, !tbaa !51
  %9 = getelementptr inbounds nuw i8, ptr %0, i64 492
  store i32 %8, ptr %9, align 4, !tbaa !52
  %10 = getelementptr inbounds nuw i8, ptr %1, i64 16
  %11 = load ptr, ptr %10, align 8, !tbaa !53
  %12 = getelementptr inbounds nuw i8, ptr %11, i64 20
  %13 = load i32, ptr %12, align 4, !tbaa !54
  %14 = getelementptr inbounds nuw i8, ptr %0, i64 516
  store i32 %13, ptr %14, align 4, !tbaa !59
  %15 = getelementptr inbounds nuw i8, ptr %1, i64 512
  %16 = load i32, ptr %15, align 8, !tbaa !60
  %17 = getelementptr inbounds nuw i8, ptr %0, i64 524
  store i32 %16, ptr %17, align 4, !tbaa !61
  %18 = getelementptr inbounds nuw i8, ptr %1, i64 28
  %19 = load i32, ptr %18, align 4, !tbaa !62
  %20 = tail call i32 @ff_toupper4(i32 noundef %19) #10
  %21 = getelementptr inbounds nuw i8, ptr %0, i64 528
  store i32 %20, ptr %21, align 8, !tbaa !63
  tail call void @ff_mpv_idct_init(ptr noundef %0) #10
  %22 = getelementptr inbounds nuw i8, ptr %0, i64 1528
  tail call void @ff_h264chroma_init(ptr noundef nonnull %22, i32 noundef 8) #10
  %23 = getelementptr inbounds nuw i8, ptr %0, i64 584
  %24 = load ptr, ptr %23, align 8, !tbaa !64
  %.not = icmp eq ptr %24, null
  br i1 %.not, label %25, label %32

25:                                               ; preds = %2
  %26 = tail call i32 @ff_thread_sync_ref(ptr noundef nonnull %1, i64 noundef 584) #10
  %.not22 = icmp eq i32 %26, 0
  br i1 %.not22, label %31, label %27

27:                                               ; preds = %25
  %28 = icmp ne i32 %26, 2
  %29 = zext i1 %28 to i32
  %30 = tail call ptr @ff_mpv_alloc_pic_pool(i32 noundef %29) #10
  store ptr %30, ptr %23, align 8, !tbaa !64
  %.not23 = icmp eq ptr %30, null
  br i1 %.not23, label %32, label %31

31:                                               ; preds = %27, %25
  br label %32

32:                                               ; preds = %27, %2, %31
  %.0 = phi i32 [ 0, %31 ], [ 0, %2 ], [ -12, %27 ]
  ret i32 %.0
}